target datalayout = "e-m:e-p270:32:32-p271:32:32-p272:64:64-i64:64-i128:128-f80:128-n8:16:32:64-S128"
target triple = "x86_64-unknown-linux-gnu"

%"class.Imath_3_2::Vec3" = type { float, float, float }
%"struct.Imf_3_2::Chromaticities" = type { %"class.Imath_3_2::Vec2.8", %"class.Imath_3_2::Vec2.8", %"class.Imath_3_2::Vec2.8", %"class.Imath_3_2::Vec2.8" }
%"class.Imath_3_2::Vec2.8" = type { float, float }

; Function Attrs: mustprogress nounwind uwtable
define linkonce_odr hidden noundef nonnull align 4 dereferenceable(8) ptr @_ZN9Imath_3_24Vec2IfEaSERKS1_(ptr noundef nonnull align 4 dereferenceable(8) %this, ptr noundef nonnull align 4 dereferenceable(8) %v) #5 comdat align 2 {
entry:
  %this.addr = alloca ptr, align 8
  %v.addr = alloca ptr, align 8
  store ptr %this, ptr %this.addr, align 8
  store ptr %v, ptr %v.addr, align 8
  %this1 = load ptr, ptr %this.addr, align 8
  %0 = load ptr, ptr %v.addr, align 8
  %x = getelementptr inbounds %"class.Imath_3_2::Vec2.8", ptr %0, i32 0, i32 0
  %1 = load float, ptr %x, align 4
  %x2 = getelementptr inbounds %"class.Imath_3_2::Vec2.8", ptr %this1, i32 0, i32 0
  store float %1, ptr %x2, align 4
  %2 = load ptr, ptr %v.addr, align 8
  %y = getelementptr inbounds %"class.Imath_3_2::Vec2.8", ptr %2, i32 0, i32 1
  %3 = load float, ptr %y, align 4
  %y3 = getelementptr inbounds %"class.Imath_3_2::Vec2.8", ptr %this1, i32 0, i32 1
  store float %3, ptr %y3, align 4
  ret ptr %this1
}

; Function Attrs: mustprogress nounwind uwtable
define linkonce_odr hidden noundef nonnull align 4 dereferenceable(32) ptr @_ZN7Imf_3_214ChromaticitiesaSERKS0_(ptr noundef nonnull align 4 dereferenceable(32) %this, ptr noundef nonnull align 4 dereferenceable(32) %0) #5 comdat align 2 {
entry:
  %this.addr = alloca ptr, align 8
  %.addr = alloca ptr, align 8
  store ptr %this, ptr %this.addr, align 8
  store ptr %0, ptr %.addr, align 8
  %this1 = load ptr, ptr %this.addr, align 8
  %red = getelementptr inbounds %"struct.Imf_3_2::Chromaticities", ptr %this1, i32 0, i32 0
  %1 = load ptr, ptr %.addr, align 8
  %red2 = getelementptr inbounds %"struct.Imf_3_2::Chromaticities", ptr %1, i32 0, i32 0
  %call = call noundef nonnull align 4 dereferenceable(8) ptr @_ZN9Imath_3_24Vec2IfEaSERKS1_(ptr noundef nonnull align 4 dereferenceable(8) %red, ptr noundef nonnull align 4 dereferenceable(8) %red2) #3
  %green = getelementptr inbounds %"struct.Imf_3_2::Chromaticities", ptr %this1, i32 0, i32 1
  %2 = load ptr, ptr %.addr, align 8
  %green3 = getelementptr inbounds %"struct.Imf_3_2::Chromaticities", ptr %2, i32 0, i32 1
  %call4 = call noundef nonnull align 4 dereferenceable(8) ptr @_ZN9Imath_3_24Vec2IfEaSERKS1_(ptr noundef nonnull align 4 dereferenceable(8) %green, ptr noundef nonnull align 4 dereferenceable(8) %green3) #3
  %blue = getelementptr inbounds %"struct.Imf_3_2::Chromaticities", ptr %this1, i32 0, i32 2
  %3 = load ptr, ptr %.addr, align 8
  %blue5 = getelementptr inbounds %"struct.Imf_3_2::Chromaticities", ptr %3, i32 0, i32 2
  %call6 = call noundef nonnull align 4 dereferenceable(8) ptr @_ZN9Imath_3_24Vec2IfEaSERKS1_(ptr noundef nonnull align 4 dereferenceable(8) %blue, ptr noundef nonnull align 4 dereferenceable(8) %blue5) #3
  %white = getelementptr inbounds %"struct.Imf_3_2::Chromaticities", ptr %this1, i32 0, i32 3
  %4 = load ptr, ptr %.addr, align 8
  %white7 = getelementptr inbounds %"struct.Imf_3_2::Chromaticities", ptr %4, i32 0, i32 3
  %call8 = call noundef nonnull align 4 dereferenceable(8) ptr @_ZN9Imath_3_24Vec2IfEaSERKS1_(ptr noundef nonnull align 4 dereferenceable(8) %white, ptr noundef nonnull align 4 dereferenceable(8) %white7) #3
  ret ptr %this1
}

; Function Attrs: mustprogress nounwind uwtable
define linkonce_odr hidden void @_ZN9Imath_3_24Vec2IfEC2Eff(ptr noundef nonnull align 4 dereferenceable(8) %this, float noundef %a, float noundef %b) unnamed_addr #5 comdat align 2 {
entry:
  %this.addr = alloca ptr, align 8
  %a.addr = alloca float, align 4
  %b.addr = alloca float, align 4
  store ptr %this, ptr %this.addr, align 8
  store float %a, ptr %a.addr, align 4
  store float %b, ptr %b.addr, align 4
  %this1 = load ptr, ptr %this.addr, align 8
  %x = getelementptr inbounds %"class.Imath_3_2::Vec2.8", ptr %this1, i32 0, i32 0
  %0 = load float, ptr %a.addr, align 4
  store float %0, ptr %x, align 4
  %y = getelementptr inbounds %"class.Imath_3_2::Vec2.8", ptr %this1, i32 0, i32 1
  %1 = load float, ptr %b.addr, align 4
  store float %1, ptr %y, align 4
  ret void
}

; Function Attrs: mustprogress uwtable
define internal void @_ZN7Imf_3_212_GLOBAL__N_112ywFromHeaderERKNS_6HeaderE(ptr noalias sret(%"class.Imath_3_2::Vec3") align 4 %agg.result, ptr noundef nonnull align 8 dereferenceable(49) %header) #4 {
entry:
  %result.ptr = alloca ptr, align 8
  %header.addr = alloca ptr, align 8
  %cr = alloca %"struct.Imf_3_2::Chromaticities", align 4
  %ref.tmp = alloca %"class.Imath_3_2::Vec2.8", align 4
  %ref.tmp1 = alloca %"class.Imath_3_2::Vec2.8", align 4
  %ref.tmp2 = alloca %"class.Imath_3_2::Vec2.8", align 4
  %ref.tmp3 = alloca %"class.Imath_3_2::Vec2.8", align 4
  store ptr %agg.result, ptr %result.ptr, align 8
  store ptr %header, ptr %header.addr, align 8
  call void @_ZN9Imath_3_24Vec2IfEC2Eff(ptr noundef nonnull align 4 dereferenceable(8) %ref.tmp, float noundef 0x3FE47AE140000000, float noundef 0x3FD51EB860000000) #3
  call void @_ZN9Imath_3_24Vec2IfEC2Eff(ptr noundef nonnull align 4 dereferenceable(8) %ref.tmp1, float noundef 0x3FD3333340000000, float noundef 0x3FE3333340000000) #3
  call void @_ZN9Imath_3_24Vec2IfEC2Eff(ptr noundef nonnull align 4 dereferenceable(8) %ref.tmp2, float noundef 0x3FC3333340000000, float noundef 0x3FAEB851E0000000) #3
  call void @_ZN9Imath_3_24Vec2IfEC2Eff(ptr noundef nonnull align 4 dereferenceable(8) %ref.tmp3, float noundef 0x3FD40346E0000000, float noundef 0x3FD50E5600000000) #3
  call void @_ZN7Imf_3_214ChromaticitiesC1ERKN9Imath_3_24Vec2IfEES5_S5_S5_(ptr noundef nonnull align 4 dereferenceable(32) %cr, ptr noundef nonnull align 4 dereferenceable(8) %ref.tmp, ptr noundef nonnull align 4 dereferenceable(8) %ref.tmp1, ptr noundef nonnull align 4 dereferenceable(8) %ref.tmp2, ptr noundef nonnull align 4 dereferenceable(8) %ref.tmp3)
  %0 = load ptr, ptr %header.addr, align 8
  %call = call noundef zeroext i1 @_ZN7Imf_3_217hasChromaticitiesERKNS_6HeaderE(ptr noundef nonnull align 8 dereferenceable(49) %0)
  br i1 %call, label %if.then, label %if.end

if.then:                                          ; preds = %entry
  %1 = load ptr, ptr %header.addr, align 8
  %call4 = call noundef nonnull align 4 dereferenceable(32) ptr @_ZN7Imf_3_214chromaticitiesERKNS_6HeaderE(ptr noundef nonnull align 8 dereferenceable(49) %1)
  %call5 = call noundef nonnull align 4 dereferenceable(32) ptr @_ZN7Imf_3_214ChromaticitiesaSERKS0_(ptr noundef nonnull align 4 dereferenceable(32) %cr, ptr noundef nonnull align 4 dereferenceable(32) %call4) #3
  br label %if.end

if.end:                                           ; preds = %if.then, %entry
  call void @_ZN7Imf_3_27RgbaYca9computeYwERKNS_14ChromaticitiesE(ptr sret(%"class.Imath_3_2::Vec3") align 4 %agg.result, ptr noundef nonnull align 4 dereferenceable(32) %cr)
  ret void
}