; Function Attrs: mustprogress uwtable
define internal fastcc void @_ZN7Imf_3_212_GLOBAL__N_112ywFromHeaderERKNS_6HeaderE(ptr noalias align 4 %agg.result, ptr noundef nonnull align 8 dereferenceable(49) %header) unnamed_addr #3 {
entry:
  %cr = alloca %"struct.Imf_3_2::Chromaticities", align 16
  %ref.tmp = alloca %"class.Imath_3_2::Vec2.8", align 8
  %ref.tmp1 = alloca %"class.Imath_3_2::Vec2.8", align 8
  %ref.tmp2 = alloca %"class.Imath_3_2::Vec2.8", align 8
  %ref.tmp3 = alloca %"class.Imath_3_2::Vec2.8", align 8
  store <2 x float> <float 0x3FE47AE140000000, float 0x3FD51EB860000000>, ptr %ref.tmp, align 8
  store <2 x float> <float 0x3FD3333340000000, float 0x3FE3333340000000>, ptr %ref.tmp1, align 8
  store <2 x float> <float 0x3FC3333340000000, float 0x3FAEB851E0000000>, ptr %ref.tmp2, align 8
  store <2 x float> <float 0x3FD40346E0000000, float 0x3FD50E5600000000>, ptr %ref.tmp3, align 8
  call void @_ZN7Imf_3_214ChromaticitiesC1ERKN9Imath_3_24Vec2IfEES5_S5_S5_(ptr noundef nonnull align 4 dereferenceable(32) %cr, ptr noundef nonnull align 4 dereferenceable(8) %ref.tmp, ptr noundef nonnull align 4 dereferenceable(8) %ref.tmp1, ptr noundef nonnull align 4 dereferenceable(8) %ref.tmp2, ptr noundef nonnull align 4 dereferenceable(8) %ref.tmp3)
  %call = call noundef zeroext i1 @_ZN7Imf_3_217hasChromaticitiesERKNS_6HeaderE(ptr noundef nonnull align 8 dereferenceable(49) %header)
  br i1 %call, label %if.then, label %if.end

if.then:                                          ; preds = %entry
  %call4 = call noundef nonnull align 4 dereferenceable(32) ptr @_ZN7Imf_3_214chromaticitiesERKNS_6HeaderE(ptr noundef nonnull align 8 dereferenceable(49) %header)
  %0 = load <4 x float>, ptr %call4, align 4
  store <4 x float> %0, ptr %cr, align 16
  %blue.i = getelementptr inbounds i8, ptr %cr, i64 16
  %blue5.i = getelementptr inbounds i8, ptr %call4, i64 16
  %1 = load <4 x float>, ptr %blue5.i, align 4
  store <4 x float> %1, ptr %blue.i, align 16
  br label %if.end

if.end:                                           ; preds = %if.then, %entry
  call void @_ZN7Imf_3_27RgbaYca9computeYwERKNS_14ChromaticitiesE(ptr sret(%"class.Imath_3_2::Vec3") align 4 %agg.result, ptr noundef nonnull align 4 dereferenceable(32) %cr)
  ret void
}